target datalayout = "e-m:e-p270:32:32-p271:32:32-p272:64:64-i64:64-i128:128-f80:128-n8:16:32:64-S128"
target triple = "x86_64-pc-linux-gnu"

%struct.PROV_ECDSA_CTX = type { ptr, ptr, ptr, i32, i8, [256 x i8], i64, [50 x i8], ptr, ptr, i64, ptr, i64, ptr, ptr, i32 }

@.str = private unnamed_addr constant [59 x i8] c"../openssl/providers/implementations/signature/ecdsa_sig.c\00", align 1

; Function Attrs: nounwind uwtable
define internal void @ecdsa_freectx(ptr noundef %0) #0 {
  %2 = alloca ptr, align 8
  %3 = alloca ptr, align 8
  store ptr %0, ptr %2, align 8, !tbaa !3
  call void @llvm.lifetime.start.p0(i64 8, ptr %3) #7
  %4 = load ptr, ptr %2, align 8, !tbaa !3
  store ptr %4, ptr %3, align 8, !tbaa !3
  %5 = load ptr, ptr %3, align 8, !tbaa !3
  %6 = getelementptr inbounds nuw %struct.PROV_ECDSA_CTX, ptr %5, i32 0, i32 9
  %7 = load ptr, ptr %6, align 8, !tbaa !25
  call void @EVP_MD_CTX_free(ptr noundef %7)
  %8 = load ptr, ptr %3, align 8, !tbaa !3
  %9 = getelementptr inbounds nuw %struct.PROV_ECDSA_CTX, ptr %8, i32 0, i32 8
  %10 = load ptr, ptr %9, align 8, !tbaa !27
  call void @EVP_MD_free(ptr noundef %10)
  %11 = load ptr, ptr %3, align 8, !tbaa !3
  %12 = getelementptr inbounds nuw %struct.PROV_ECDSA_CTX, ptr %11, i32 0, i32 1
  %13 = load ptr, ptr %12, align 8, !tbaa !18
  call void @CRYPTO_free(ptr noundef %13, ptr noundef @.str, i32 noundef 613)
  %14 = load ptr, ptr %3, align 8, !tbaa !3
  %15 = getelementptr inbounds nuw %struct.PROV_ECDSA_CTX, ptr %14, i32 0, i32 11
  %16 = load ptr, ptr %15, align 8, !tbaa !28
  call void @CRYPTO_free(ptr noundef %16, ptr noundef @.str, i32 noundef 614)
  %17 = load ptr, ptr %3, align 8, !tbaa !3
  %18 = getelementptr inbounds nuw %struct.PROV_ECDSA_CTX, ptr %17, i32 0, i32 2
  %19 = load ptr, ptr %18, align 8, !tbaa !29
  call void @EC_KEY_free(ptr noundef %19)
  %20 = load ptr, ptr %3, align 8, !tbaa !3
  %21 = getelementptr inbounds nuw %struct.PROV_ECDSA_CTX, ptr %20, i32 0, i32 13
  %22 = load ptr, ptr %21, align 8, !tbaa !30
  call void @BN_clear_free(ptr noundef %22)
  %23 = load ptr, ptr %3, align 8, !tbaa !3
  %24 = getelementptr inbounds nuw %struct.PROV_ECDSA_CTX, ptr %23, i32 0, i32 14
  %25 = load ptr, ptr %24, align 8, !tbaa !31
  call void @BN_clear_free(ptr noundef %25)
  %26 = load ptr, ptr %3, align 8, !tbaa !3
  call void @CRYPTO_free(ptr noundef %26, ptr noundef @.str, i32 noundef 618)
  call void @llvm.lifetime.end.p0(i64 8, ptr %3) #7
  ret void
}