; Function Attrs: nounwind uwtable
define internal void @ecdsa_freectx(ptr noundef %0) #0 {
  %2 = getelementptr inbounds nuw i8, ptr %0, i64 360
  %3 = load ptr, ptr %2, align 8, !tbaa !18
  tail call void @EVP_MD_CTX_free(ptr noundef %3) #8
  %4 = getelementptr inbounds nuw i8, ptr %0, i64 352
  %5 = load ptr, ptr %4, align 8, !tbaa !28
  tail call void @EVP_MD_free(ptr noundef %5) #8
  %6 = getelementptr inbounds nuw i8, ptr %0, i64 8
  %7 = load ptr, ptr %6, align 8, !tbaa !16
  tail call void @CRYPTO_free(ptr noundef %7, ptr noundef nonnull @.str, i32 noundef 613) #8
  %8 = getelementptr inbounds nuw i8, ptr %0, i64 376
  %9 = load ptr, ptr %8, align 8, !tbaa !25
  tail call void @CRYPTO_free(ptr noundef %9, ptr noundef nonnull @.str, i32 noundef 614) #8
  %10 = getelementptr inbounds nuw i8, ptr %0, i64 16
  %11 = load ptr, ptr %10, align 8, !tbaa !19
  tail call void @EC_KEY_free(ptr noundef %11) #8
  %12 = getelementptr inbounds nuw i8, ptr %0, i64 392
  %13 = load ptr, ptr %12, align 8, !tbaa !29
  tail call void @BN_clear_free(ptr noundef %13) #8
  %14 = getelementptr inbounds nuw i8, ptr %0, i64 400
  %15 = load ptr, ptr %14, align 8, !tbaa !30
  tail call void @BN_clear_free(ptr noundef %15) #8
  tail call void @CRYPTO_free(ptr noundef %0, ptr noundef nonnull @.str, i32 noundef 618) #8
  ret void
}